target datalayout = "e-m:e-p270:32:32-p271:32:32-p272:64:64-i64:64-i128:128-f80:128-n8:16:32:64-S128"
target triple = "x86_64-pc-linux-gnu"

%struct._packet_info = type { ptr, ptr, i32, i32, %struct.nstime_t, %struct.nstime_t, %struct.nstime_t, i8, ptr, ptr, ptr, ptr, %struct._address, %struct._address, %struct._address, %struct._address, %struct._address, %struct._address, i32, ptr, i8, [3 x i8], %struct.anon, i32, i32, i32, i32, ptr, i8, ptr, ptr, i16, i16, i32, i32, i16, i32, i32, ptr, ptr, ptr, i8, i8, i16, i16, i16, i32, i16, i16, ptr, ptr, ptr, ptr, ptr, i32, i32 }
%struct.nstime_t = type { i64, i32 }
%struct._address = type { i32, i32, ptr, ptr }
%struct.anon = type { i8, [3 x i8] }
%struct._unistim_info_t = type { i8, i8, i32, i32, %struct._address, i32, %struct._address, i32, i32, i32, i32, i32, i32, ptr, i32, ptr }

@hf_unistim_seq_nu = internal global i32 0, align 4
@hf_unistim_packet_type = internal global i32 0, align 4
@ett_unistim = internal global i32 0, align 4
@.str.648 = private unnamed_addr constant [8 x i8] c"UNISTIM\00", align 1
@proto_unistim = internal global i32 0, align 4
@unistim_tap = internal global i32 0, align 4
@.str.1337 = private unnamed_addr constant [13 x i8] c"Reliable UDP\00", align 1
@uinfo = internal global ptr null, align 8
@.str.1338 = private unnamed_addr constant [21 x i8] c"NAK for seq -   0x%X\00", align 1
@.str.1339 = private unnamed_addr constant [21 x i8] c"ACK for seq -   0x%X\00", align 1
@.str.1340 = private unnamed_addr constant [21 x i8] c"Payload seq -   0x%X\00", align 1

; Function Attrs: inlinehint nounwind null_pointer_is_valid sspstrong uwtable
define internal void @clear_address(ptr noundef %0) #4 {
  %2 = alloca ptr, align 8
  store ptr %0, ptr %2, align 8
  %3 = load ptr, ptr %2, align 8
  %4 = getelementptr inbounds nuw %struct._address, ptr %3, i32 0, i32 0
  store i32 0, ptr %4, align 8
  %5 = load ptr, ptr %2, align 8
  %6 = getelementptr inbounds nuw %struct._address, ptr %5, i32 0, i32 1
  store i32 0, ptr %6, align 4
  %7 = load ptr, ptr %2, align 8
  %8 = getelementptr inbounds nuw %struct._address, ptr %7, i32 0, i32 2
  store ptr null, ptr %8, align 8
  %9 = load ptr, ptr %2, align 8
  %10 = getelementptr inbounds nuw %struct._address, ptr %9, i32 0, i32 3
  store ptr null, ptr %10, align 8
  ret void
}

; Function Attrs: null_pointer_is_valid sspstrong uwtable
define internal i32 @dissect_unistim(ptr noundef %0, ptr noundef %1, ptr noundef %2, ptr noundef %3) #0 {
  %5 = alloca i32, align 4
  %6 = alloca ptr, align 8
  %7 = alloca ptr, align 8
  %8 = alloca ptr, align 8
  %9 = alloca ptr, align 8
  %10 = alloca i32, align 4
  %11 = alloca ptr, align 8
  %12 = alloca ptr, align 8
  %13 = alloca ptr, align 8
  %14 = alloca i32, align 4
  store ptr %0, ptr %6, align 8
  store ptr %1, ptr %7, align 8
  store ptr %2, ptr %8, align 8
  store ptr %3, ptr %9, align 8
  call void @llvm.lifetime.start.p0(i64 4, ptr %10) #7
  store i32 0, ptr %10, align 4
  call void @llvm.lifetime.start.p0(i64 8, ptr %11) #7
  store ptr null, ptr %11, align 8
  call void @llvm.lifetime.start.p0(i64 8, ptr %12) #7
  store ptr null, ptr %12, align 8
  call void @llvm.lifetime.start.p0(i64 8, ptr %13) #7
  store ptr null, ptr %13, align 8
  %15 = load ptr, ptr %6, align 8
  %16 = load i32, ptr %10, align 4
  %17 = add i32 %16, 4
  %18 = call zeroext i8 @tvb_get_uint8(ptr noundef %15, i32 noundef %17)
  %19 = zext i8 %18 to i32
  switch i32 %19, label %30 [
    i32 0, label %20
    i32 1, label %20
    i32 2, label %21
  ]

20:                                               ; preds = %4, %4
  br label %31

21:                                               ; preds = %4
  %22 = load ptr, ptr %6, align 8
  %23 = load i32, ptr %10, align 4
  %24 = add i32 %23, 5
  %25 = call zeroext i8 @tvb_get_uint8(ptr noundef %22, i32 noundef %24)
  %26 = zext i8 %25 to i32
  switch i32 %26, label %28 [
    i32 0, label %27
    i32 1, label %27
    i32 2, label %27
    i32 3, label %27
    i32 255, label %27
  ]

27:                                               ; preds = %21, %21, %21, %21, %21
  br label %29

28:                                               ; preds = %21
  store i32 0, ptr %5, align 4
  store i32 1, ptr %14, align 4
  br label %146

29:                                               ; preds = %27
  br label %31

30:                                               ; preds = %4
  store i32 0, ptr %5, align 4
  store i32 1, ptr %14, align 4
  br label %146

31:                                               ; preds = %29, %20
  %32 = load ptr, ptr %7, align 8
  %33 = getelementptr inbounds nuw %struct._packet_info, ptr %32, i32 0, i32 1
  %34 = load ptr, ptr %33, align 8
  call void @col_set_str(ptr noundef %34, i32 noundef 35, ptr noundef @.str.648)
  %35 = load ptr, ptr %7, align 8
  %36 = getelementptr inbounds nuw %struct._packet_info, ptr %35, i32 0, i32 1
  %37 = load ptr, ptr %36, align 8
  call void @col_clear(ptr noundef %37, i32 noundef 25)
  %38 = load ptr, ptr %8, align 8
  %39 = load i32, ptr @proto_unistim, align 4
  %40 = load ptr, ptr %6, align 8
  %41 = load i32, ptr %10, align 4
  %42 = call ptr @proto_tree_add_item(ptr noundef %38, i32 noundef %39, ptr noundef %40, i32 noundef %41, i32 noundef -1, i32 noundef 0)
  store ptr %42, ptr %11, align 8
  %43 = load ptr, ptr %11, align 8
  %44 = load i32, ptr @ett_unistim, align 4
  %45 = call ptr @proto_item_add_subtree(ptr noundef %43, i32 noundef %44)
  store ptr %45, ptr %12, align 8
  %46 = load ptr, ptr %12, align 8
  %47 = load ptr, ptr %6, align 8
  %48 = load i32, ptr %10, align 4
  %49 = load i32, ptr @ett_unistim, align 4
  %50 = call ptr @proto_tree_add_subtree(ptr noundef %46, ptr noundef %47, i32 noundef %48, i32 noundef 5, i32 noundef %49, ptr noundef null, ptr noundef @.str.1337)
  store ptr %50, ptr %13, align 8
  %51 = load ptr, ptr %13, align 8
  %52 = load i32, ptr @hf_unistim_seq_nu, align 4
  %53 = load ptr, ptr %6, align 8
  %54 = load i32, ptr %10, align 4
  %55 = call ptr @proto_tree_add_item(ptr noundef %51, i32 noundef %52, ptr noundef %53, i32 noundef %54, i32 noundef 4, i32 noundef 0)
  %56 = load ptr, ptr %7, align 8
  %57 = getelementptr inbounds nuw %struct._packet_info, ptr %56, i32 0, i32 51
  %58 = load ptr, ptr %57, align 8
  %59 = call noalias ptr @wmem_alloc(ptr noundef %58, i64 noundef 120) #8
  store ptr %59, ptr @uinfo, align 8
  %60 = load ptr, ptr @uinfo, align 8
  %61 = getelementptr inbounds nuw %struct._unistim_info_t, ptr %60, i32 0, i32 0
  store i8 0, ptr %61, align 8
  %62 = load ptr, ptr @uinfo, align 8
  %63 = getelementptr inbounds nuw %struct._unistim_info_t, ptr %62, i32 0, i32 1
  store i8 0, ptr %63, align 1
  %64 = load ptr, ptr %6, align 8
  %65 = load i32, ptr %10, align 4
  %66 = call i32 @tvb_get_ntohl(ptr noundef %64, i32 noundef %65)
  %67 = load ptr, ptr @uinfo, align 8
  %68 = getelementptr inbounds nuw %struct._unistim_info_t, ptr %67, i32 0, i32 2
  store i32 %66, ptr %68, align 4
  %69 = load ptr, ptr @uinfo, align 8
  %70 = getelementptr inbounds nuw %struct._unistim_info_t, ptr %69, i32 0, i32 3
  store i32 0, ptr %70, align 8
  %71 = load ptr, ptr @uinfo, align 8
  %72 = getelementptr inbounds nuw %struct._unistim_info_t, ptr %71, i32 0, i32 7
  store i32 -1, ptr %72, align 8
  %73 = load ptr, ptr @uinfo, align 8
  %74 = getelementptr inbounds nuw %struct._unistim_info_t, ptr %73, i32 0, i32 8
  store i32 -1, ptr %74, align 4
  %75 = load ptr, ptr @uinfo, align 8
  %76 = getelementptr inbounds nuw %struct._unistim_info_t, ptr %75, i32 0, i32 9
  store i32 -1, ptr %76, align 8
  %77 = load ptr, ptr @uinfo, align 8
  %78 = getelementptr inbounds nuw %struct._unistim_info_t, ptr %77, i32 0, i32 10
  store i32 -1, ptr %78, align 4
  %79 = load ptr, ptr @uinfo, align 8
  %80 = getelementptr inbounds nuw %struct._unistim_info_t, ptr %79, i32 0, i32 11
  store i32 -1, ptr %80, align 8
  %81 = load ptr, ptr @uinfo, align 8
  %82 = getelementptr inbounds nuw %struct._unistim_info_t, ptr %81, i32 0, i32 12
  store i32 -1, ptr %82, align 4
  %83 = load ptr, ptr @uinfo, align 8
  %84 = getelementptr inbounds nuw %struct._unistim_info_t, ptr %83, i32 0, i32 13
  store ptr null, ptr %84, align 8
  %85 = load ptr, ptr @uinfo, align 8
  %86 = getelementptr inbounds nuw %struct._unistim_info_t, ptr %85, i32 0, i32 15
  store ptr null, ptr %86, align 8
  %87 = load ptr, ptr @uinfo, align 8
  %88 = getelementptr inbounds nuw %struct._unistim_info_t, ptr %87, i32 0, i32 4
  call void @clear_address(ptr noundef %88)
  %89 = load ptr, ptr @uinfo, align 8
  %90 = getelementptr inbounds nuw %struct._unistim_info_t, ptr %89, i32 0, i32 6
  call void @clear_address(ptr noundef %90)
  %91 = load ptr, ptr @uinfo, align 8
  %92 = getelementptr inbounds nuw %struct._unistim_info_t, ptr %91, i32 0, i32 5
  store i32 0, ptr %92, align 8
  %93 = load i32, ptr %10, align 4
  %94 = add i32 %93, 4
  store i32 %94, ptr %10, align 4
  %95 = load ptr, ptr %13, align 8
  %96 = load i32, ptr @hf_unistim_packet_type, align 4
  %97 = load ptr, ptr %6, align 8
  %98 = load i32, ptr %10, align 4
  %99 = call ptr @proto_tree_add_item(ptr noundef %95, i32 noundef %96, ptr noundef %97, i32 noundef %98, i32 noundef 1, i32 noundef 0)
  %100 = load ptr, ptr %6, align 8
  %101 = load i32, ptr %10, align 4
  %102 = call zeroext i8 @tvb_get_uint8(ptr noundef %100, i32 noundef %101)
  %103 = load ptr, ptr @uinfo, align 8
  %104 = getelementptr inbounds nuw %struct._unistim_info_t, ptr %103, i32 0, i32 0
  store i8 %102, ptr %104, align 8
  %105 = load ptr, ptr %6, align 8
  %106 = load i32, ptr %10, align 4
  %107 = call zeroext i8 @tvb_get_uint8(ptr noundef %105, i32 noundef %106)
  %108 = zext i8 %107 to i32
  switch i32 %108, label %139 [
    i32 0, label %109
    i32 1, label %117
    i32 2, label %125
  ]

109:                                              ; preds = %31
  %110 = load ptr, ptr %7, align 8
  %111 = getelementptr inbounds nuw %struct._packet_info, ptr %110, i32 0, i32 1
  %112 = load ptr, ptr %111, align 8
  %113 = load ptr, ptr %6, align 8
  %114 = load i32, ptr %10, align 4
  %115 = sub i32 %114, 4
  %116 = call i32 @tvb_get_ntohl(ptr noundef %113, i32 noundef %115)
  call void (ptr, i32, ptr, ...) @col_add_fstr(ptr noundef %112, i32 noundef 25, ptr noundef @.str.1338, i32 noundef %116)
  br label %140

117:                                              ; preds = %31
  %118 = load ptr, ptr %7, align 8
  %119 = getelementptr inbounds nuw %struct._packet_info, ptr %118, i32 0, i32 1
  %120 = load ptr, ptr %119, align 8
  %121 = load ptr, ptr %6, align 8
  %122 = load i32, ptr %10, align 4
  %123 = sub i32 %122, 4
  %124 = call i32 @tvb_get_ntohl(ptr noundef %121, i32 noundef %123)
  call void (ptr, i32, ptr, ...) @col_add_fstr(ptr noundef %120, i32 noundef 25, ptr noundef @.str.1339, i32 noundef %124)
  br label %140

125:                                              ; preds = %31
  %126 = load ptr, ptr %7, align 8
  %127 = getelementptr inbounds nuw %struct._packet_info, ptr %126, i32 0, i32 1
  %128 = load ptr, ptr %127, align 8
  %129 = load ptr, ptr %6, align 8
  %130 = load i32, ptr %10, align 4
  %131 = sub i32 %130, 4
  %132 = call i32 @tvb_get_ntohl(ptr noundef %129, i32 noundef %131)
  call void (ptr, i32, ptr, ...) @col_add_fstr(ptr noundef %128, i32 noundef 25, ptr noundef @.str.1340, i32 noundef %132)
  %133 = load i32, ptr %10, align 4
  %134 = add i32 %133, 1
  store i32 %134, ptr %10, align 4
  %135 = load ptr, ptr %12, align 8
  %136 = load ptr, ptr %6, align 8
  %137 = load i32, ptr %10, align 4
  %138 = load ptr, ptr %7, align 8
  call void @dissect_payload(ptr noundef %135, ptr noundef %136, i32 noundef %137, ptr noundef %138)
  br label %140

139:                                              ; preds = %31
  store i32 0, ptr %5, align 4
  store i32 1, ptr %14, align 4
  br label %146

140:                                              ; preds = %125, %117, %109
  %141 = load i32, ptr @unistim_tap, align 4
  %142 = load ptr, ptr %7, align 8
  %143 = load ptr, ptr @uinfo, align 8
  call void @tap_queue_packet(i32 noundef %141, ptr noundef %142, ptr noundef %143)
  %144 = load ptr, ptr %6, align 8
  %145 = call i32 @tvb_captured_length(ptr noundef %144)
  store i32 %145, ptr %5, align 4
  store i32 1, ptr %14, align 4
  br label %146

146:                                              ; preds = %140, %139, %30, %28
  call void @llvm.lifetime.end.p0(i64 8, ptr %13) #7
  call void @llvm.lifetime.end.p0(i64 8, ptr %12) #7
  call void @llvm.lifetime.end.p0(i64 8, ptr %11) #7
  call void @llvm.lifetime.end.p0(i64 4, ptr %10) #7
  %147 = load i32, ptr %5, align 4
  ret i32 %147
}