; Function Attrs: null_pointer_is_valid sspstrong uwtable
define internal i32 @dissect_unistim(ptr noundef %0, ptr noundef %1, ptr noundef %2, ptr readnone captures(none) %3) #0 {
  %5 = tail call zeroext i8 @tvb_get_uint8(ptr noundef %0, i32 noundef 4)
  switch i8 %5, label %51 [
    i8 0, label %8
    i8 1, label %8
    i8 2, label %6
  ]

6:                                                ; preds = %4
  %7 = tail call zeroext i8 @tvb_get_uint8(ptr noundef %0, i32 noundef 5)
  switch i8 %7, label %51 [
    i8 0, label %8
    i8 1, label %8
    i8 2, label %8
    i8 3, label %8
    i8 -1, label %8
  ]

8:                                                ; preds = %6, %6, %6, %6, %6, %4, %4
  %9 = getelementptr inbounds nuw i8, ptr %1, i64 8
  %10 = load ptr, ptr %9, align 8
  tail call void @col_set_str(ptr noundef %10, i32 noundef 35, ptr noundef nonnull @.str.648)
  %11 = load ptr, ptr %9, align 8
  tail call void @col_clear(ptr noundef %11, i32 noundef 25)
  %12 = load i32, ptr @proto_unistim, align 4
  %13 = tail call ptr @proto_tree_add_item(ptr noundef %2, i32 noundef %12, ptr noundef %0, i32 noundef 0, i32 noundef -1, i32 noundef 0)
  %14 = load i32, ptr @ett_unistim, align 4
  %15 = tail call ptr @proto_item_add_subtree(ptr noundef %13, i32 noundef %14)
  %16 = load i32, ptr @ett_unistim, align 4
  %17 = tail call ptr @proto_tree_add_subtree(ptr noundef %15, ptr noundef %0, i32 noundef 0, i32 noundef 5, i32 noundef %16, ptr noundef null, ptr noundef nonnull @.str.1337)
  %18 = load i32, ptr @hf_unistim_seq_nu, align 4
  %19 = tail call ptr @proto_tree_add_item(ptr noundef %17, i32 noundef %18, ptr noundef %0, i32 noundef 0, i32 noundef 4, i32 noundef 0)
  %20 = getelementptr inbounds nuw i8, ptr %1, i64 408
  %21 = load ptr, ptr %20, align 8
  %22 = tail call noalias dereferenceable_or_null(120) ptr @wmem_alloc(ptr noundef %21, i64 noundef 120) #6
  store ptr %22, ptr @uinfo, align 8
  store i8 0, ptr %22, align 8
  %23 = getelementptr inbounds nuw i8, ptr %22, i64 1
  store i8 0, ptr %23, align 1
  %24 = tail call i32 @tvb_get_ntohl(ptr noundef %0, i32 noundef 0)
  %25 = load ptr, ptr @uinfo, align 8
  %26 = getelementptr inbounds nuw i8, ptr %25, i64 4
  store i32 %24, ptr %26, align 4
  %27 = getelementptr inbounds nuw i8, ptr %25, i64 8
  store i32 0, ptr %27, align 8
  %28 = getelementptr inbounds nuw i8, ptr %25, i64 72
  %29 = getelementptr inbounds nuw i8, ptr %25, i64 96
  tail call void @llvm.memset.p0.i64(ptr noundef nonnull align 8 dereferenceable(24) %28, i8 -1, i64 24, i1 false)
  store ptr null, ptr %29, align 8
  %30 = getelementptr inbounds nuw i8, ptr %25, i64 112
  store ptr null, ptr %30, align 8
  %31 = getelementptr inbounds nuw i8, ptr %25, i64 16
  %32 = getelementptr inbounds nuw i8, ptr %25, i64 48
  tail call void @llvm.memset.p0.i64(ptr noundef nonnull align 8 dereferenceable(24) %32, i8 0, i64 24, i1 false)
  tail call void @llvm.memset.p0.i64(ptr noundef nonnull align 8 dereferenceable(28) %31, i8 0, i64 28, i1 false)
  %33 = load i32, ptr @hf_unistim_packet_type, align 4
  %34 = tail call ptr @proto_tree_add_item(ptr noundef %17, i32 noundef %33, ptr noundef %0, i32 noundef 4, i32 noundef 1, i32 noundef 0)
  %35 = tail call zeroext i8 @tvb_get_uint8(ptr noundef %0, i32 noundef 4)
  %36 = load ptr, ptr @uinfo, align 8
  store i8 %35, ptr %36, align 8
  %37 = tail call zeroext i8 @tvb_get_uint8(ptr noundef %0, i32 noundef 4)
  switch i8 %37, label %51 [
    i8 0, label %38
    i8 1, label %41
    i8 2, label %44
  ]

38:                                               ; preds = %8
  %39 = load ptr, ptr %9, align 8
  %40 = tail call i32 @tvb_get_ntohl(ptr noundef %0, i32 noundef 0)
  tail call void (ptr, i32, ptr, ...) @col_add_fstr(ptr noundef %39, i32 noundef 25, ptr noundef nonnull @.str.1338, i32 noundef %40)
  br label %47

41:                                               ; preds = %8
  %42 = load ptr, ptr %9, align 8
  %43 = tail call i32 @tvb_get_ntohl(ptr noundef %0, i32 noundef 0)
  tail call void (ptr, i32, ptr, ...) @col_add_fstr(ptr noundef %42, i32 noundef 25, ptr noundef nonnull @.str.1339, i32 noundef %43)
  br label %47

44:                                               ; preds = %8
  %45 = load ptr, ptr %9, align 8
  %46 = tail call i32 @tvb_get_ntohl(ptr noundef %0, i32 noundef 0)
  tail call void (ptr, i32, ptr, ...) @col_add_fstr(ptr noundef %45, i32 noundef 25, ptr noundef nonnull @.str.1340, i32 noundef %46)
  tail call fastcc void @dissect_payload(ptr noundef %15, ptr noundef %0, ptr noundef %1)
  br label %47

47:                                               ; preds = %44, %41, %38
  %48 = load i32, ptr @unistim_tap, align 4
  %49 = load ptr, ptr @uinfo, align 8
  tail call void @tap_queue_packet(i32 noundef %48, ptr noundef %1, ptr noundef %49)
  %50 = tail call i32 @tvb_captured_length(ptr noundef %0)
  br label %51

51:                                               ; preds = %8, %4, %6, %47
  %.0 = phi i32 [ %50, %47 ], [ 0, %6 ], [ 0, %4 ], [ 0, %8 ]
  ret i32 %.0
}